target datalayout = "e-m:e-p270:32:32-p271:32:32-p272:64:64-i64:64-i128:128-f80:128-n8:16:32:64-S128"
target triple = "x86_64-pc-linux-gnu"

%struct.expert_field = type { i32, i32 }

@hf_dlr_rsc_ring_supervisor_enable = internal global i32 0, align 4
@hf_dlr_rsc_ring_supervisor_precedence = internal global i32 0, align 4
@hf_dlr_rsc_beacon_interval = internal global i32 0, align 4
@hf_dlr_rsc_beacon_timeout = internal global i32 0, align 4
@hf_dlr_rsc_dlr_vlan_id = internal global i32 0, align 4
@ei_mal_dlr_ring_supervisor_config = internal global %struct.expert_field zeroinitializer, align 4

; Function Attrs: null_pointer_is_valid sspstrong uwtable
define internal i32 @dissect_dlr_ring_supervisor_config(ptr noundef %0, ptr noundef %1, ptr noundef %2, ptr noundef %3, i32 noundef %4, i32 noundef %5) #0 {
  %7 = alloca i32, align 4
  %8 = alloca ptr, align 8
  %9 = alloca ptr, align 8
  %10 = alloca ptr, align 8
  %11 = alloca ptr, align 8
  %12 = alloca i32, align 4
  %13 = alloca i32, align 4
  store ptr %0, ptr %8, align 8
  store ptr %1, ptr %9, align 8
  store ptr %2, ptr %10, align 8
  store ptr %3, ptr %11, align 8
  store i32 %4, ptr %12, align 4
  store i32 %5, ptr %13, align 4
  %14 = load i32, ptr %13, align 4
  %15 = icmp slt i32 %14, 12
  br i1 %15, label %16, label %21

16:                                               ; preds = %6
  %17 = load ptr, ptr %8, align 8
  %18 = load ptr, ptr %10, align 8
  %19 = call ptr @expert_add_info(ptr noundef %17, ptr noundef %18, ptr noundef @ei_mal_dlr_ring_supervisor_config)
  %20 = load i32, ptr %13, align 4
  store i32 %20, ptr %7, align 4
  br label %51

21:                                               ; preds = %6
  %22 = load ptr, ptr %9, align 8
  %23 = load i32, ptr @hf_dlr_rsc_ring_supervisor_enable, align 4
  %24 = load ptr, ptr %11, align 8
  %25 = load i32, ptr %12, align 4
  %26 = call ptr @proto_tree_add_item(ptr noundef %22, i32 noundef %23, ptr noundef %24, i32 noundef %25, i32 noundef 1, i32 noundef -2147483648)
  %27 = load ptr, ptr %9, align 8
  %28 = load i32, ptr @hf_dlr_rsc_ring_supervisor_precedence, align 4
  %29 = load ptr, ptr %11, align 8
  %30 = load i32, ptr %12, align 4
  %31 = add i32 %30, 1
  %32 = call ptr @proto_tree_add_item(ptr noundef %27, i32 noundef %28, ptr noundef %29, i32 noundef %31, i32 noundef 1, i32 noundef -2147483648)
  %33 = load ptr, ptr %9, align 8
  %34 = load i32, ptr @hf_dlr_rsc_beacon_interval, align 4
  %35 = load ptr, ptr %11, align 8
  %36 = load i32, ptr %12, align 4
  %37 = add i32 %36, 2
  %38 = call ptr @proto_tree_add_item(ptr noundef %33, i32 noundef %34, ptr noundef %35, i32 noundef %37, i32 noundef 4, i32 noundef -2147483648)
  %39 = load ptr, ptr %9, align 8
  %40 = load i32, ptr @hf_dlr_rsc_beacon_timeout, align 4
  %41 = load ptr, ptr %11, align 8
  %42 = load i32, ptr %12, align 4
  %43 = add i32 %42, 6
  %44 = call ptr @proto_tree_add_item(ptr noundef %39, i32 noundef %40, ptr noundef %41, i32 noundef %43, i32 noundef 4, i32 noundef -2147483648)
  %45 = load ptr, ptr %9, align 8
  %46 = load i32, ptr @hf_dlr_rsc_dlr_vlan_id, align 4
  %47 = load ptr, ptr %11, align 8
  %48 = load i32, ptr %12, align 4
  %49 = add i32 %48, 10
  %50 = call ptr @proto_tree_add_item(ptr noundef %45, i32 noundef %46, ptr noundef %47, i32 noundef %49, i32 noundef 2, i32 noundef -2147483648)
  store i32 12, ptr %7, align 4
  br label %51

51:                                               ; preds = %21, %16
  %52 = load i32, ptr %7, align 4
  ret i32 %52
}