; Function Attrs: null_pointer_is_valid sspstrong uwtable
define internal range(i32 -2147483648, 13) i32 @dissect_dlr_ring_supervisor_config(ptr noundef %0, ptr noundef %1, ptr noundef %2, ptr noundef %3, i32 noundef %4, i32 noundef %5) #0 {
  %7 = icmp slt i32 %5, 12
  br i1 %7, label %8, label %10

8:                                                ; preds = %6
  %9 = tail call ptr @expert_add_info(ptr noundef %0, ptr noundef %2, ptr noundef nonnull @ei_mal_dlr_ring_supervisor_config)
  br label %25

10:                                               ; preds = %6
  %11 = load i32, ptr @hf_dlr_rsc_ring_supervisor_enable, align 4
  %12 = tail call ptr @proto_tree_add_item(ptr noundef %1, i32 noundef %11, ptr noundef %3, i32 noundef %4, i32 noundef 1, i32 noundef -2147483648)
  %13 = load i32, ptr @hf_dlr_rsc_ring_supervisor_precedence, align 4
  %14 = add i32 %4, 1
  %15 = tail call ptr @proto_tree_add_item(ptr noundef %1, i32 noundef %13, ptr noundef %3, i32 noundef %14, i32 noundef 1, i32 noundef -2147483648)
  %16 = load i32, ptr @hf_dlr_rsc_beacon_interval, align 4
  %17 = add i32 %4, 2
  %18 = tail call ptr @proto_tree_add_item(ptr noundef %1, i32 noundef %16, ptr noundef %3, i32 noundef %17, i32 noundef 4, i32 noundef -2147483648)
  %19 = load i32, ptr @hf_dlr_rsc_beacon_timeout, align 4
  %20 = add i32 %4, 6
  %21 = tail call ptr @proto_tree_add_item(ptr noundef %1, i32 noundef %19, ptr noundef %3, i32 noundef %20, i32 noundef 4, i32 noundef -2147483648)
  %22 = load i32, ptr @hf_dlr_rsc_dlr_vlan_id, align 4
  %23 = add i32 %4, 10
  %24 = tail call ptr @proto_tree_add_item(ptr noundef %1, i32 noundef %22, ptr noundef %3, i32 noundef %23, i32 noundef 2, i32 noundef -2147483648)
  br label %25

25:                                               ; preds = %10, %8
  %.0 = phi i32 [ %5, %8 ], [ 12, %10 ]
  ret i32 %.0
}